target datalayout = "e-m:e-p270:32:32-p271:32:32-p272:64:64-i64:64-i128:128-f80:128-n8:16:32:64-S128"
target triple = "x86_64-unknown-linux-gnu"

%"class.std::set.0" = type { %"class.std::_Rb_tree.1" }
%"class.std::_Rb_tree.1" = type { %"struct.std::_Rb_tree<QuantLib::Observer *, QuantLib::Observer *, std::_Identity<QuantLib::Observer *>, std::less<QuantLib::Observer *>>::_Rb_tree_impl" }
%"struct.std::_Rb_tree<QuantLib::Observer *, QuantLib::Observer *, std::_Identity<QuantLib::Observer *>, std::less<QuantLib::Observer *>>::_Rb_tree_impl" = type { [8 x i8], %"struct.std::_Rb_tree_header" }
%"struct.std::_Rb_tree_header" = type { %"struct.std::_Rb_tree_node_base", i64 }
%"struct.std::_Rb_tree_node_base" = type { i32, ptr, ptr, ptr }
%"class.std::set" = type { %"class.std::_Rb_tree" }
%"class.std::_Rb_tree" = type { %"struct.std::_Rb_tree<boost::shared_ptr<QuantLib::Observable>, boost::shared_ptr<QuantLib::Observable>, std::_Identity<boost::shared_ptr<QuantLib::Observable>>, std::less<boost::shared_ptr<QuantLib::Observable>>>::_Rb_tree_impl" }
%"struct.std::_Rb_tree<boost::shared_ptr<QuantLib::Observable>, boost::shared_ptr<QuantLib::Observable>, std::_Identity<boost::shared_ptr<QuantLib::Observable>>, std::less<boost::shared_ptr<QuantLib::Observable>>>::_Rb_tree_impl" = type { [8 x i8], %"struct.std::_Rb_tree_header" }
%"class.boost::detail::shared_count" = type { ptr }
%"class.QuantLib::Observable" = type { ptr, %"class.std::set.0" }
%"class.QuantLib::MfStateProcess" = type { %"class.QuantLib::StochasticProcess1D", double, i8, ptr, ptr }
%"class.QuantLib::StochasticProcess1D" = type { %"class.QuantLib::StochasticProcess", %"class.boost::shared_ptr.7" }
%"class.QuantLib::StochasticProcess" = type { %"class.QuantLib::Observer", %"class.QuantLib::Observable", %"class.boost::shared_ptr.6" }
%"class.QuantLib::Observer" = type { ptr, %"class.std::set" }
%"class.boost::shared_ptr.6" = type { ptr, %"class.boost::detail::shared_count" }
%"class.boost::shared_ptr.7" = type { ptr, %"class.boost::detail::shared_count" }
%"class.QuantLib::Array" = type { %"class.std::unique_ptr", i64 }
%"class.std::unique_ptr" = type { %"struct.std::__uniq_ptr_data" }
%"struct.std::__uniq_ptr_data" = type { %"class.std::__uniq_ptr_impl" }
%"class.std::__uniq_ptr_impl" = type { %"class.std::tuple" }
%"class.std::tuple" = type { %"struct.std::_Tuple_impl" }
%"struct.std::_Tuple_impl" = type { %"struct.std::_Head_base.9" }
%"struct.std::_Head_base.9" = type { ptr }
%"struct.__gnu_cxx::__ops::_Val_less_iter" = type { i8 }

; Function Attrs: mustprogress nounwind uwtable
define linkonce_odr noundef nonnull align 8 dereferenceable(8) ptr @_ZNSt10_Head_baseILm0EPdLb0EE7_M_headERKS1_(ptr noundef nonnull align 8 dereferenceable(8) %__b) #1 comdat align 2 {
entry:
  %__b.addr = alloca ptr, align 8
  store ptr %__b, ptr %__b.addr, align 8, !tbaa !3
  %0 = load ptr, ptr %__b.addr, align 8, !tbaa !3
  %_M_head_impl = getelementptr inbounds nuw %"struct.std::_Head_base.9", ptr %0, i32 0, i32 0
  ret ptr %_M_head_impl
}

; Function Attrs: mustprogress nounwind uwtable
define linkonce_odr noundef nonnull align 8 dereferenceable(8) ptr @_ZNSt11_Tuple_implILm0EJPdSt14default_deleteIA_dEEE7_M_headERKS4_(ptr noundef nonnull align 8 dereferenceable(8) %__t) #1 comdat align 2 {
entry:
  %__t.addr = alloca ptr, align 8
  store ptr %__t, ptr %__t.addr, align 8, !tbaa !3
  %0 = load ptr, ptr %__t.addr, align 8, !tbaa !3
  %call = call noundef nonnull align 8 dereferenceable(8) ptr @_ZNSt10_Head_baseILm0EPdLb0EE7_M_headERKS1_(ptr noundef nonnull align 8 dereferenceable(8) %0) #11
  ret ptr %call
}

; Function Attrs: mustprogress nounwind uwtable
define linkonce_odr noundef nonnull align 8 dereferenceable(8) ptr @_ZSt12__get_helperILm0EPdJSt14default_deleteIA_dEEERKT0_RKSt11_Tuple_implIXT_EJS4_DpT1_EE(ptr noundef nonnull align 8 dereferenceable(8) %__t) #1 comdat {
entry:
  %__t.addr = alloca ptr, align 8
  store ptr %__t, ptr %__t.addr, align 8, !tbaa !3
  %0 = load ptr, ptr %__t.addr, align 8, !tbaa !3
  %call = call noundef nonnull align 8 dereferenceable(8) ptr @_ZNSt11_Tuple_implILm0EJPdSt14default_deleteIA_dEEE7_M_headERKS4_(ptr noundef nonnull align 8 dereferenceable(8) %0) #11
  ret ptr %call
}

; Function Attrs: inlinehint mustprogress nounwind uwtable
define linkonce_odr void @_ZSt9__advanceIPKdlEvRT_T0_St26random_access_iterator_tag(ptr noundef nonnull align 8 dereferenceable(8) %__i, i64 noundef %__n) #5 comdat {
entry:
  %__i.addr = alloca ptr, align 8
  %__n.addr = alloca i64, align 8
  store ptr %__i, ptr %__i.addr, align 8, !tbaa !3
  store i64 %__n, ptr %__n.addr, align 8, !tbaa !45
  %0 = load i64, ptr %__n.addr, align 8, !tbaa !45
  %1 = call i1 @llvm.is.constant.i64(i64 %0)
  br i1 %1, label %land.lhs.true, label %if.else

land.lhs.true:                                    ; preds = %entry
  %2 = load i64, ptr %__n.addr, align 8, !tbaa !45
  %cmp = icmp eq i64 %2, 1
  br i1 %cmp, label %if.then, label %if.else

if.then:                                          ; preds = %land.lhs.true
  %3 = load ptr, ptr %__i.addr, align 8, !tbaa !3
  %4 = load ptr, ptr %3, align 8, !tbaa !3
  %incdec.ptr = getelementptr inbounds nuw double, ptr %4, i32 1
  store ptr %incdec.ptr, ptr %3, align 8, !tbaa !3
  br label %if.end6

if.else:                                          ; preds = %land.lhs.true, %entry
  %5 = load i64, ptr %__n.addr, align 8, !tbaa !45
  %6 = call i1 @llvm.is.constant.i64(i64 %5)
  br i1 %6, label %land.lhs.true1, label %if.else5

land.lhs.true1:                                   ; preds = %if.else
  %7 = load i64, ptr %__n.addr, align 8, !tbaa !45
  %cmp2 = icmp eq i64 %7, -1
  br i1 %cmp2, label %if.then3, label %if.else5

if.then3:                                         ; preds = %land.lhs.true1
  %8 = load ptr, ptr %__i.addr, align 8, !tbaa !3
  %9 = load ptr, ptr %8, align 8, !tbaa !3
  %incdec.ptr4 = getelementptr inbounds double, ptr %9, i32 -1
  store ptr %incdec.ptr4, ptr %8, align 8, !tbaa !3
  br label %if.end

if.else5:                                         ; preds = %land.lhs.true1, %if.else
  %10 = load i64, ptr %__n.addr, align 8, !tbaa !45
  %11 = load ptr, ptr %__i.addr, align 8, !tbaa !3
  %12 = load ptr, ptr %11, align 8, !tbaa !3
  %add.ptr = getelementptr inbounds double, ptr %12, i64 %10
  store ptr %add.ptr, ptr %11, align 8, !tbaa !3
  br label %if.end

if.end:                                           ; preds = %if.else5, %if.then3
  br label %if.end6

if.end6:                                          ; preds = %if.end, %if.then
  ret void
}

; Function Attrs: inlinehint mustprogress nounwind uwtable
define linkonce_odr noundef i64 @_ZSt10__distanceIPKdENSt15iterator_traitsIT_E15difference_typeES3_S3_St26random_access_iterator_tag(ptr noundef %__first, ptr noundef %__last) #5 comdat {
entry:
  %__first.addr = alloca ptr, align 8
  %__last.addr = alloca ptr, align 8
  store ptr %__first, ptr %__first.addr, align 8, !tbaa !3
  store ptr %__last, ptr %__last.addr, align 8, !tbaa !3
  %0 = load ptr, ptr %__last.addr, align 8, !tbaa !3
  %1 = load ptr, ptr %__first.addr, align 8, !tbaa !3
  %sub.ptr.lhs.cast = ptrtoint ptr %0 to i64
  %sub.ptr.rhs.cast = ptrtoint ptr %1 to i64
  %sub.ptr.sub = sub i64 %sub.ptr.lhs.cast, %sub.ptr.rhs.cast
  %sub.ptr.div = sdiv exact i64 %sub.ptr.sub, 8
  ret i64 %sub.ptr.div
}

; Function Attrs: inlinehint mustprogress nounwind uwtable
define linkonce_odr void @_ZSt19__iterator_categoryIPKdENSt15iterator_traitsIT_E17iterator_categoryERKS3_(ptr noundef nonnull align 8 dereferenceable(8) %0) #5 comdat {
entry:
  %.addr = alloca ptr, align 8
  store ptr %0, ptr %.addr, align 8, !tbaa !3
  ret void
}

; Function Attrs: mustprogress nounwind uwtable
define linkonce_odr noundef nonnull align 8 dereferenceable(8) ptr @_ZSt3getILm0EJPdSt14default_deleteIA_dEEERKNSt13tuple_elementIXT_ESt5tupleIJDpT0_EEE4typeERKS8_(ptr noundef nonnull align 8 dereferenceable(8) %__t) #1 comdat {
entry:
  %__t.addr = alloca ptr, align 8
  store ptr %__t, ptr %__t.addr, align 8, !tbaa !3
  %0 = load ptr, ptr %__t.addr, align 8, !tbaa !3
  %call = call noundef nonnull align 8 dereferenceable(8) ptr @_ZSt12__get_helperILm0EPdJSt14default_deleteIA_dEEERKT0_RKSt11_Tuple_implIXT_EJS4_DpT1_EE(ptr noundef nonnull align 8 dereferenceable(8) %0) #11
  ret ptr %call
}

; Function Attrs: mustprogress nounwind uwtable
define linkonce_odr noundef zeroext i1 @_ZNK9__gnu_cxx5__ops14_Val_less_iterclIKdPS3_EEbRT_T0_(ptr noundef nonnull align 1 dereferenceable(1) %this, ptr noundef nonnull align 8 dereferenceable(8) %__val, ptr noundef %__it) #1 comdat align 2 {
entry:
  %this.addr = alloca ptr, align 8
  %__val.addr = alloca ptr, align 8
  %__it.addr = alloca ptr, align 8
  store ptr %this, ptr %this.addr, align 8, !tbaa !3
  store ptr %__val, ptr %__val.addr, align 8, !tbaa !3
  store ptr %__it, ptr %__it.addr, align 8, !tbaa !3
  %0 = load ptr, ptr %__val.addr, align 8, !tbaa !3
  %1 = load double, ptr %0, align 8, !tbaa !12
  %2 = load ptr, ptr %__it.addr, align 8, !tbaa !3
  %3 = load double, ptr %2, align 8, !tbaa !12
  %cmp = fcmp olt double %1, %3
  ret i1 %cmp
}

; Function Attrs: inlinehint mustprogress uwtable
define linkonce_odr void @_ZSt7advanceIPKdlEvRT_T0_(ptr noundef nonnull align 8 dereferenceable(8) %__i, i64 noundef %__n) #4 comdat {
entry:
  %__i.addr = alloca ptr, align 8
  %__n.addr = alloca i64, align 8
  %__d = alloca i64, align 8
  store ptr %__i, ptr %__i.addr, align 8, !tbaa !3
  store i64 %__n, ptr %__n.addr, align 8, !tbaa !45
  call void @llvm.lifetime.start.p0(i64 8, ptr %__d) #11
  %0 = load i64, ptr %__n.addr, align 8, !tbaa !45
  store i64 %0, ptr %__d, align 8, !tbaa !45
  %1 = load ptr, ptr %__i.addr, align 8, !tbaa !3
  %2 = load i64, ptr %__d, align 8, !tbaa !45
  %3 = load ptr, ptr %__i.addr, align 8, !tbaa !3
  call void @_ZSt19__iterator_categoryIPKdENSt15iterator_traitsIT_E17iterator_categoryERKS3_(ptr noundef nonnull align 8 dereferenceable(8) %3)
  call void @_ZSt9__advanceIPKdlEvRT_T0_St26random_access_iterator_tag(ptr noundef nonnull align 8 dereferenceable(8) %1, i64 noundef %2)
  call void @llvm.lifetime.end.p0(i64 8, ptr %__d) #11
  ret void
}

; Function Attrs: inlinehint mustprogress uwtable
define linkonce_odr noundef i64 @_ZSt8distanceIPKdENSt15iterator_traitsIT_E15difference_typeES3_S3_(ptr noundef %__first, ptr noundef %__last) #4 comdat {
entry:
  %__first.addr = alloca ptr, align 8
  %__last.addr = alloca ptr, align 8
  store ptr %__first, ptr %__first.addr, align 8, !tbaa !3
  store ptr %__last, ptr %__last.addr, align 8, !tbaa !3
  %0 = load ptr, ptr %__first.addr, align 8, !tbaa !3
  %1 = load ptr, ptr %__last.addr, align 8, !tbaa !3
  call void @_ZSt19__iterator_categoryIPKdENSt15iterator_traitsIT_E17iterator_categoryERKS3_(ptr noundef nonnull align 8 dereferenceable(8) %__first.addr)
  %call = call noundef i64 @_ZSt10__distanceIPKdENSt15iterator_traitsIT_E15difference_typeES3_S3_St26random_access_iterator_tag(ptr noundef %0, ptr noundef %1)
  ret i64 %call
}

; Function Attrs: mustprogress nounwind uwtable
define linkonce_odr noundef ptr @_ZNKSt15__uniq_ptr_implIdSt14default_deleteIA_dEE6_M_ptrEv(ptr noundef nonnull align 8 dereferenceable(8) %this) #1 comdat align 2 {
entry:
  %this.addr = alloca ptr, align 8
  store ptr %this, ptr %this.addr, align 8, !tbaa !3
  %this1 = load ptr, ptr %this.addr, align 8
  %_M_t = getelementptr inbounds nuw %"class.std::__uniq_ptr_impl", ptr %this1, i32 0, i32 0
  %call = call noundef nonnull align 8 dereferenceable(8) ptr @_ZSt3getILm0EJPdSt14default_deleteIA_dEEERKNSt13tuple_elementIXT_ESt5tupleIJDpT0_EEE4typeERKS8_(ptr noundef nonnull align 8 dereferenceable(8) %_M_t) #11
  %0 = load ptr, ptr %call, align 8, !tbaa !3
  ret ptr %0
}

; Function Attrs: mustprogress uwtable
define linkonce_odr noundef ptr @_ZSt13__upper_boundIPKddN9__gnu_cxx5__ops14_Val_less_iterEET_S5_S5_RKT0_T1_(ptr noundef %__first, ptr noundef %__last, ptr noundef nonnull align 8 dereferenceable(8) %__val) #2 comdat {
entry:
  %__comp = alloca %"struct.__gnu_cxx::__ops::_Val_less_iter", align 1
  %__first.addr = alloca ptr, align 8
  %__last.addr = alloca ptr, align 8
  %__val.addr = alloca ptr, align 8
  %__len = alloca i64, align 8
  %__half = alloca i64, align 8
  %__middle = alloca ptr, align 8
  store ptr %__first, ptr %__first.addr, align 8, !tbaa !3
  store ptr %__last, ptr %__last.addr, align 8, !tbaa !3
  store ptr %__val, ptr %__val.addr, align 8, !tbaa !3
  call void @llvm.lifetime.start.p0(i64 8, ptr %__len) #11
  %0 = load ptr, ptr %__first.addr, align 8, !tbaa !3
  %1 = load ptr, ptr %__last.addr, align 8, !tbaa !3
  %call = call noundef i64 @_ZSt8distanceIPKdENSt15iterator_traitsIT_E15difference_typeES3_S3_(ptr noundef %0, ptr noundef %1)
  store i64 %call, ptr %__len, align 8, !tbaa !45
  br label %while.cond

while.cond:                                       ; preds = %if.end, %entry
  %2 = load i64, ptr %__len, align 8, !tbaa !45
  %cmp = icmp sgt i64 %2, 0
  br i1 %cmp, label %while.body, label %while.end

while.body:                                       ; preds = %while.cond
  call void @llvm.lifetime.start.p0(i64 8, ptr %__half) #11
  %3 = load i64, ptr %__len, align 8, !tbaa !45
  %shr = ashr i64 %3, 1
  store i64 %shr, ptr %__half, align 8, !tbaa !45
  call void @llvm.lifetime.start.p0(i64 8, ptr %__middle) #11
  %4 = load ptr, ptr %__first.addr, align 8, !tbaa !3
  store ptr %4, ptr %__middle, align 8, !tbaa !3
  %5 = load i64, ptr %__half, align 8, !tbaa !45
  call void @_ZSt7advanceIPKdlEvRT_T0_(ptr noundef nonnull align 8 dereferenceable(8) %__middle, i64 noundef %5)
  %6 = load ptr, ptr %__val.addr, align 8, !tbaa !3
  %7 = load ptr, ptr %__middle, align 8, !tbaa !3
  %call1 = call noundef zeroext i1 @_ZNK9__gnu_cxx5__ops14_Val_less_iterclIKdPS3_EEbRT_T0_(ptr noundef nonnull align 1 dereferenceable(1) %__comp, ptr noundef nonnull align 8 dereferenceable(8) %6, ptr noundef %7)
  br i1 %call1, label %if.then, label %if.else

if.then:                                          ; preds = %while.body
  %8 = load i64, ptr %__half, align 8, !tbaa !45
  store i64 %8, ptr %__len, align 8, !tbaa !45
  br label %if.end

if.else:                                          ; preds = %while.body
  %9 = load ptr, ptr %__middle, align 8, !tbaa !3
  store ptr %9, ptr %__first.addr, align 8, !tbaa !3
  %10 = load ptr, ptr %__first.addr, align 8, !tbaa !3
  %incdec.ptr = getelementptr inbounds nuw double, ptr %10, i32 1
  store ptr %incdec.ptr, ptr %__first.addr, align 8, !tbaa !3
  %11 = load i64, ptr %__len, align 8, !tbaa !45
  %12 = load i64, ptr %__half, align 8, !tbaa !45
  %sub = sub nsw i64 %11, %12
  %sub2 = sub nsw i64 %sub, 1
  store i64 %sub2, ptr %__len, align 8, !tbaa !45
  br label %if.end

if.end:                                           ; preds = %if.else, %if.then
  call void @llvm.lifetime.end.p0(i64 8, ptr %__middle) #11
  call void @llvm.lifetime.end.p0(i64 8, ptr %__half) #11
  br label %while.cond, !llvm.loop !128

while.end:                                        ; preds = %while.cond
  %13 = load ptr, ptr %__first.addr, align 8, !tbaa !3
  call void @llvm.lifetime.end.p0(i64 8, ptr %__len) #11
  ret ptr %13
}

; Function Attrs: inlinehint mustprogress nounwind uwtable
define linkonce_odr void @_ZN9__gnu_cxx5__ops15__val_less_iterEv() #5 comdat {
entry:
  ret void
}

; Function Attrs: mustprogress nounwind uwtable
define linkonce_odr noundef ptr @_ZNKSt10unique_ptrIA_dSt14default_deleteIS0_EE3getEv(ptr noundef nonnull align 8 dereferenceable(8) %this) #1 comdat align 2 {
entry:
  %this.addr = alloca ptr, align 8
  store ptr %this, ptr %this.addr, align 8, !tbaa !3
  %this1 = load ptr, ptr %this.addr, align 8
  %_M_t = getelementptr inbounds nuw %"class.std::unique_ptr", ptr %this1, i32 0, i32 0
  %call = call noundef ptr @_ZNKSt15__uniq_ptr_implIdSt14default_deleteIA_dEE6_M_ptrEv(ptr noundef nonnull align 8 dereferenceable(8) %_M_t) #11
  ret ptr %call
}

; Function Attrs: inlinehint mustprogress nounwind uwtable
define linkonce_odr noundef double @_ZNK8QuantLib5ArrayixEm(ptr noundef nonnull align 8 dereferenceable(16) %this, i64 noundef %i) #5 comdat align 2 {
entry:
  %this.addr = alloca ptr, align 8
  %i.addr = alloca i64, align 8
  store ptr %this, ptr %this.addr, align 8, !tbaa !3
  store i64 %i, ptr %i.addr, align 8, !tbaa !45
  %this1 = load ptr, ptr %this.addr, align 8
  %data_ = getelementptr inbounds nuw %"class.QuantLib::Array", ptr %this1, i32 0, i32 0
  %call = call noundef ptr @_ZNKSt10unique_ptrIA_dSt14default_deleteIS0_EE3getEv(ptr noundef nonnull align 8 dereferenceable(8) %data_) #11
  %0 = load i64, ptr %i.addr, align 8, !tbaa !45
  %arrayidx = getelementptr inbounds nuw double, ptr %call, i64 %0
  %1 = load double, ptr %arrayidx, align 8, !tbaa !12
  ret double %1
}

; Function Attrs: inlinehint mustprogress uwtable
define linkonce_odr noundef ptr @_ZSt11upper_boundIPKddET_S2_S2_RKT0_(ptr noundef %__first, ptr noundef %__last, ptr noundef nonnull align 8 dereferenceable(8) %__val) #4 comdat {
entry:
  %__first.addr = alloca ptr, align 8
  %__last.addr = alloca ptr, align 8
  %__val.addr = alloca ptr, align 8
  store ptr %__first, ptr %__first.addr, align 8, !tbaa !3
  store ptr %__last, ptr %__last.addr, align 8, !tbaa !3
  store ptr %__val, ptr %__val.addr, align 8, !tbaa !3
  %0 = load ptr, ptr %__first.addr, align 8, !tbaa !3
  %1 = load ptr, ptr %__last.addr, align 8, !tbaa !3
  %2 = load ptr, ptr %__val.addr, align 8, !tbaa !3
  call void @_ZN9__gnu_cxx5__ops15__val_less_iterEv()
  %call = call noundef ptr @_ZSt13__upper_boundIPKddN9__gnu_cxx5__ops14_Val_less_iterEET_S5_S5_RKT0_T1_(ptr noundef %0, ptr noundef %1, ptr noundef nonnull align 8 dereferenceable(8) %2)
  ret ptr %call
}

; Function Attrs: inlinehint mustprogress nounwind uwtable
define linkonce_odr noundef ptr @_ZNK8QuantLib5Array3endEv(ptr noundef nonnull align 8 dereferenceable(16) %this) #5 comdat align 2 {
entry:
  %this.addr = alloca ptr, align 8
  store ptr %this, ptr %this.addr, align 8, !tbaa !3
  %this1 = load ptr, ptr %this.addr, align 8
  %data_ = getelementptr inbounds nuw %"class.QuantLib::Array", ptr %this1, i32 0, i32 0
  %call = call noundef ptr @_ZNKSt10unique_ptrIA_dSt14default_deleteIS0_EE3getEv(ptr noundef nonnull align 8 dereferenceable(8) %data_) #11
  %n_ = getelementptr inbounds nuw %"class.QuantLib::Array", ptr %this1, i32 0, i32 1
  %0 = load i64, ptr %n_, align 8, !tbaa !47
  %add.ptr = getelementptr inbounds nuw double, ptr %call, i64 %0
  ret ptr %add.ptr
}

; Function Attrs: inlinehint mustprogress nounwind uwtable
define linkonce_odr noundef ptr @_ZNK8QuantLib5Array5beginEv(ptr noundef nonnull align 8 dereferenceable(16) %this) #5 comdat align 2 {
entry:
  %this.addr = alloca ptr, align 8
  store ptr %this, ptr %this.addr, align 8, !tbaa !3
  %this1 = load ptr, ptr %this.addr, align 8
  %data_ = getelementptr inbounds nuw %"class.QuantLib::Array", ptr %this1, i32 0, i32 0
  %call = call noundef ptr @_ZNKSt10unique_ptrIA_dSt14default_deleteIS0_EE3getEv(ptr noundef nonnull align 8 dereferenceable(8) %data_) #11
  ret ptr %call
}

; Function Attrs: mustprogress uwtable
define noundef double @_ZNK8QuantLib14MfStateProcess9diffusionEdd(ptr noundef nonnull align 8 dereferenceable(176) %this, double noundef %t, double noundef %0) unnamed_addr #2 align 2 {
entry:
  %this.addr = alloca ptr, align 8
  %t.addr = alloca double, align 8
  %.addr = alloca double, align 8
  %i = alloca i64, align 8
  store ptr %this, ptr %this.addr, align 8, !tbaa !3
  store double %t, ptr %t.addr, align 8, !tbaa !12
  store double %0, ptr %.addr, align 8, !tbaa !12
  %this1 = load ptr, ptr %this.addr, align 8
  call void @llvm.lifetime.start.p0(i64 8, ptr %i) #11
  %times_ = getelementptr inbounds nuw %"class.QuantLib::MfStateProcess", ptr %this1, i32 0, i32 3
  %1 = load ptr, ptr %times_, align 8, !tbaa !40
  %call = call noundef ptr @_ZNK8QuantLib5Array5beginEv(ptr noundef nonnull align 8 dereferenceable(16) %1)
  %times_2 = getelementptr inbounds nuw %"class.QuantLib::MfStateProcess", ptr %this1, i32 0, i32 3
  %2 = load ptr, ptr %times_2, align 8, !tbaa !40
  %call3 = call noundef ptr @_ZNK8QuantLib5Array3endEv(ptr noundef nonnull align 8 dereferenceable(16) %2)
  %call4 = call noundef ptr @_ZSt11upper_boundIPKddET_S2_S2_RKT0_(ptr noundef %call, ptr noundef %call3, ptr noundef nonnull align 8 dereferenceable(8) %t.addr)
  %times_5 = getelementptr inbounds nuw %"class.QuantLib::MfStateProcess", ptr %this1, i32 0, i32 3
  %3 = load ptr, ptr %times_5, align 8, !tbaa !40
  %call6 = call noundef ptr @_ZNK8QuantLib5Array5beginEv(ptr noundef nonnull align 8 dereferenceable(16) %3)
  %sub.ptr.lhs.cast = ptrtoint ptr %call4 to i64
  %sub.ptr.rhs.cast = ptrtoint ptr %call6 to i64
  %sub.ptr.sub = sub i64 %sub.ptr.lhs.cast, %sub.ptr.rhs.cast
  %sub.ptr.div = sdiv exact i64 %sub.ptr.sub, 8
  store i64 %sub.ptr.div, ptr %i, align 8, !tbaa !45
  %vols_ = getelementptr inbounds nuw %"class.QuantLib::MfStateProcess", ptr %this1, i32 0, i32 4
  %4 = load ptr, ptr %vols_, align 8, !tbaa !55
  %5 = load i64, ptr %i, align 8, !tbaa !45
  %call7 = call noundef double @_ZNK8QuantLib5ArrayixEm(ptr noundef nonnull align 8 dereferenceable(16) %4, i64 noundef %5)
  call void @llvm.lifetime.end.p0(i64 8, ptr %i) #11
  ret double %call7
}