; Function Attrs: mustprogress nofree norecurse nosync nounwind willreturn memory(read, inaccessiblemem: none) uwtable
define noundef double @_ZNK8QuantLib14MfStateProcess9diffusionEdd(ptr nocapture noundef nonnull readonly align 8 dereferenceable(176) %this, double noundef %t, double %0) unnamed_addr #11 align 2 {
entry:
  %times_ = getelementptr inbounds nuw i8, ptr %this, i64 160
  %1 = load ptr, ptr %times_, align 8, !tbaa !54
  %2 = load ptr, ptr %1, align 8, !tbaa !3
  %n_.i = getelementptr inbounds nuw i8, ptr %1, i64 8
  %3 = load i64, ptr %n_.i, align 8, !tbaa !46
  %cmp11.i.i = icmp sgt i64 %3, 0
  br i1 %cmp11.i.i, label %while.body.i.i, label %_ZSt11upper_boundIPKddET_S2_S2_RKT0_.exit

while.body.i.i:                                   ; preds = %entry, %while.body.i.i
  %__first.addr.013.i.i = phi ptr [ %__first.addr.1.i.i, %while.body.i.i ], [ %2, %entry ]
  %__len.012.i.i = phi i64 [ %__len.1.i.i, %while.body.i.i ], [ %3, %entry ]
  %shr.i.i = lshr i64 %__len.012.i.i, 1
  %add.ptr.i.i.i.i = getelementptr inbounds double, ptr %__first.addr.013.i.i, i64 %shr.i.i
  %4 = load double, ptr %add.ptr.i.i.i.i, align 8, !tbaa !60
  %cmp.i.i.i = fcmp olt double %t, %4
  %incdec.ptr.i.i = getelementptr inbounds nuw i8, ptr %add.ptr.i.i.i.i, i64 8
  %5 = xor i64 %shr.i.i, -1
  %sub2.i.i = add nsw i64 %__len.012.i.i, %5
  %__len.1.i.i = select i1 %cmp.i.i.i, i64 %shr.i.i, i64 %sub2.i.i
  %__first.addr.1.i.i = select i1 %cmp.i.i.i, ptr %__first.addr.013.i.i, ptr %incdec.ptr.i.i
  %cmp.i.i = icmp sgt i64 %__len.1.i.i, 0
  br i1 %cmp.i.i, label %while.body.i.i, label %_ZSt11upper_boundIPKddET_S2_S2_RKT0_.exit, !llvm.loop !67

_ZSt11upper_boundIPKddET_S2_S2_RKT0_.exit:        ; preds = %while.body.i.i, %entry
  %__first.addr.0.lcssa.i.i = phi ptr [ %2, %entry ], [ %__first.addr.1.i.i, %while.body.i.i ]
  %sub.ptr.rhs.cast.i.i.i.i = ptrtoint ptr %2 to i64
  %sub.ptr.lhs.cast = ptrtoint ptr %__first.addr.0.lcssa.i.i to i64
  %sub.ptr.sub = sub i64 %sub.ptr.lhs.cast, %sub.ptr.rhs.cast.i.i.i.i
  %vols_ = getelementptr inbounds nuw i8, ptr %this, i64 168
  %6 = load ptr, ptr %vols_, align 8, !tbaa !68
  %7 = load ptr, ptr %6, align 8, !tbaa !3
  %arrayidx.i = getelementptr inbounds nuw i8, ptr %7, i64 %sub.ptr.sub
  %8 = load double, ptr %arrayidx.i, align 8, !tbaa !60
  ret double %8
}